Certificate:
    Data:
        Version: 3 (0x2)
        Serial Number: 1 (0x1)
    Signature Algorithm: sha1WithRSAEncryption
        Issuer: CN=scan.wunderlin.net, O=Hackers Inc LTD., C=CH
        Validity
            Not Before: Nov 18 19:42:45 2014 GMT
            Not After : Nov 18 19:42:45 2015 GMT
        Subject: C=CH, O=Hackers Inc LTD., CN=scan.wunderlin.net
        Subject Public Key Info:
            Public Key Algorithm: rsaEncryption
                Public-Key: (2048 bit)
                Modulus:
                    00:e0:55:af:ab:26:75:6b:17:4a:1d:50:d6:ef:f9:
                    8b:3d:bc:6d:c4:4a:d4:e7:a3:ec:bc:54:e4:d3:7d:
                    a9:fc:82:27:6b:c5:46:b0:3f:8c:f0:0d:92:9e:44:
                    d6:a0:1e:8f:07:75:2e:77:9f:fb:b0:6f:6a:d5:b7:
                    3b:4c:da:38:1c:86:f3:56:f0:23:80:f9:fd:1a:60:
                    3b:31:fd:ed:da:ec:66:92:2a:30:da:15:20:02:20:
                    d9:9b:7e:7b:e2:7f:cd:6f:86:d9:c3:92:7e:e9:cf:
                    b5:05:31:8f:a8:75:6f:d0:fb:12:ae:6a:b7:ba:82:
                    2c:24:3b:e4:2b:44:20:67:70:dc:3f:84:57:7b:e0:
                    10:2d:92:2b:78:26:11:7c:07:9a:2f:10:ab:b2:d0:
                    8f:bc:25:16:a5:58:32:3e:75:66:ad:e4:86:be:2f:
                    4e:4f:ab:a2:7e:28:5d:5e:6c:a2:77:6b:58:ef:33:
                    24:35:3a:80:b3:22:a5:82:11:c1:7d:36:91:43:43:
                    16:c7:fd:db:05:af:08:a6:ec:0d:84:1c:d3:cb:8e:
                    b7:bf:45:f7:f1:5c:2a:39:04:21:b4:01:b3:7d:a9:
                    10:6e:e9:28:a8:cf:ae:9d:24:b9:82:ef:bd:54:46:
                    fb:f5:f1:03:af:25:4f:67:ce:77:14:14:21:13:ef:
                    75:0d
                Exponent: 65537 (0x10001)
        X509v3 extensions:
            X509v3 Basic Constraints: 
                CA:FALSE
            Netscape Comment: 
                OpenSSL Generated Certificate
            X509v3 Subject Key Identifier: 
                C9:1D:F0:9C:ED:85:89:62:13:1B:92:4B:0D:56:A2:C5:7F:28:10:FE
            X509v3 Authority Key Identifier: 
                keyid:8C:76:55:F1:C0:A5:B1:B9:D1:5B:53:6E:7E:DA:82:AB:47:93:9A:5E

    Signature Algorithm: sha1WithRSAEncryption
         98:ba:a6:21:34:72:f1:ea:c0:58:18:7d:51:37:00:5a:f1:c3:
         dc:e8:51:c2:f9:b1:b3:a7:f1:91:46:af:9d:27:f7:3b:11:9f:
         0d:05:5f:a0:fc:9a:72:8e:bc:7e:53:6b:9d:c2:53:c5:70:f6:
         cc:d0:dd:37:ba:4b:5d:aa:73:bc:e3:b9:52:07:8b:49:af:d1:
         77:e0:d2:20:83:4d:a6:46:d5:a3:85:32:c0:10:d5:b2:63:d6:
         08:2f:0f:68:62:fe:ea:57:a2:97:2e:ab:70:1b:f9:96:4e:61:
         8e:63:dd:a4:9d:b8:12:bc:57:e2:e7:d7:0c:40:a6:df:4d:e1:
         a7:f5:88:c7:e3:9e:fb:44:b1:d5:62:5d:a7:7a:dd:d5:6a:69:
         9b:db:c9:d9:fe:40:7b:3f:cc:d8:26:90:f0:ad:78:13:1d:43:
         b7:f0:bf:aa:92:85:48:3e:4f:2d:5a:fc:73:ee:71:bc:36:ce:
         5d:94:25:a1:ea:72:70:0c:55:a5:73:c7:c6:c5:fa:73:24:7e:
         33:a6:dc:f7:3f:bc:fd:b9:da:08:35:12:10:18:62:cc:7a:64:
         df:7d:5d:88:48:4a:15:ff:97:c2:35:5a:8a:4f:e3:ba:06:63:
         1f:f7:88:35:e4:1e:dc:cf:b1:f2:54:a2:50:c5:23:39:fa:03:
         37:ba:88:f1
-----BEGIN CERTIFICATE-----
MIIDgDCCAmigAwIBAgIBATANBgkqhkiG9w0BAQUFADBFMRswGQYDVQQDDBJzY2Fu
Lnd1bmRlcmxpbi5uZXQxGTAXBgNVBAoMEEhhY2tlcnMgSW5jIExURC4xCzAJBgNV
BAYTAkNIMB4XDTE0MTExODE5NDI0NVoXDTE1MTExODE5NDI0NVowRTELMAkGA1UE
BhMCQ0gxGTAXBgNVBAoMEEhhY2tlcnMgSW5jIExURC4xGzAZBgNVBAMMEnNjYW4u
d3VuZGVybGluLm5ldDCCASIwDQYJKoZIhvcNAQEBBQADggEPADCCAQoCggEBAOBV
r6smdWsXSh1Q1u/5iz28bcRK1Oej7LxU5NN9qfyCJ2vFRrA/jPANkp5E1qAejwd1
Lnef+7BvatW3O0zaOByG81bwI4D5/RpgOzH97drsZpIqMNoVIAIg2Zt+e+J/zW+G
2cOSfunPtQUxj6h1b9D7Eq5qt7qCLCQ75CtEIGdw3D+EV3vgEC2SK3gmEXwHmi8Q
q7LQj7wlFqVYMj51Zq3khr4vTk+ron4oXV5sondrWO8zJDU6gLMipYIRwX02kUND
Fsf92wWvCKbsDYQc08uOt79F9/FcKjkEIbQBs32pEG7pKKjPrp0kuYLvvVRG+/Xx
A68lT2fOdxQUIRPvdQ0CAwEAAaN7MHkwCQYDVR0TBAIwADAsBglghkgBhvhCAQ0E
HxYdT3BlblNTTCBHZW5lcmF0ZWQgQ2VydGlmaWNhdGUwHQYDVR0OBBYEFMkd8Jzt
hYliExuSSw1WosV/KBD+MB8GA1UdIwQYMBaAFIx2VfHApbG50VtTbn7agqtHk5pe
MA0GCSqGSIb3DQEBBQUAA4IBAQCYuqYhNHLx6sBYGH1RNwBa8cPc6FHC+bGzp/GR
Rq+dJ/c7EZ8NBV+g/Jpyjrx+U2udwlPFcPbM0N03uktdqnO847lSB4tJr9F34NIg
g02mRtWjhTLAENWyY9YILw9oYv7qV6KXLqtwG/mWTmGOY92knbgSvFfi59cMQKbf
TeGn9YjH4577RLHVYl2net3Vammb28nZ/kB7P8zYJpDwrXgTHUO38L+qkoVIPk8t
Wvxz7nG8Ns5dlCWh6nJwDFWlc8fGxfpzJH4zptz3P7z9udoINRIQGGLMemTffV2I
SEoV/5fCNVqKT+O6BmMf94g15B7cz7HyVKJQxSM5+gM3uojx
-----END CERTIFICATE-----
