Certificate:
    Data:
        Version: 3 (0x2)
        Serial Number: 1 (0x1)
    Signature Algorithm: sha1WithRSAEncryption
        Issuer: C=AU, ST=Some-State, O=Internet Widgits Pty Ltd, CN=scan.wunderlin.net/emailAddress=simon@wunderlin.net
        Validity
            Not Before: Nov 18 19:17:58 2014 GMT
            Not After : Nov 18 19:17:58 2015 GMT
        Subject: C=AU, ST=Some-State, O=Internet Widgits Pty Ltd, CN=scan.wunderlin.net/emailAddress=simon@wunderlin.net
        Subject Public Key Info:
            Public Key Algorithm: rsaEncryption
                Public-Key: (2048 bit)
                Modulus:
                    00:d1:f9:d7:ff:6e:8a:a4:4c:0c:d6:68:5a:4a:e7:
                    96:fa:95:53:52:80:73:c4:d8:ff:ce:b7:bc:74:22:
                    6e:b6:c1:4b:f2:2d:a4:58:38:06:22:b5:2f:1c:f4:
                    52:39:61:ee:4b:0c:4d:b7:fe:d1:ae:4e:5a:d4:29:
                    28:62:76:57:0f:3b:15:bc:7c:6e:93:6e:6e:a4:32:
                    dc:1b:83:a0:78:b4:92:9e:f6:32:1e:19:89:cb:cc:
                    ae:94:04:7a:b5:42:e8:43:3d:a1:64:1a:a1:14:d4:
                    8e:e6:a2:8c:e4:f1:ae:7e:ae:f5:89:a7:8a:7d:99:
                    f6:7a:aa:35:34:4d:78:be:51:7d:3d:a2:e4:1f:0c:
                    3b:9f:5d:0b:9a:7e:3c:23:0e:f9:a6:99:c4:1d:04:
                    ea:31:3c:16:51:55:d5:18:f1:78:1e:f1:3d:d2:0b:
                    f4:5b:cf:56:7b:8c:f1:d6:94:b0:f9:42:6a:9a:22:
                    cf:05:04:d5:d2:b2:06:55:cc:5d:69:e1:2e:5a:d7:
                    11:b0:52:8e:c2:0e:43:7e:fd:43:1c:85:fd:ca:34:
                    c7:7c:94:5a:cf:38:b5:b2:01:c2:83:c1:9c:b0:3f:
                    d1:da:ce:10:7b:3e:1e:c5:14:29:f5:88:fc:15:e1:
                    ef:75:4d:db:34:25:30:12:88:30:8a:af:a9:f6:fb:
                    28:6f
                Exponent: 65537 (0x10001)
        X509v3 extensions:
            X509v3 Basic Constraints: 
                CA:FALSE
            Netscape Comment: 
                OpenSSL Generated Certificate
            X509v3 Subject Key Identifier: 
                13:75:B7:10:6A:85:FF:77:D3:01:34:93:16:CF:92:20:B7:CA:4B:DA
            X509v3 Authority Key Identifier: 
                keyid:2E:48:1A:F7:18:5C:2F:DE:E9:9E:66:EF:6D:72:0C:68:5B:23:A5:98

    Signature Algorithm: sha1WithRSAEncryption
         22:28:7f:be:f5:b6:07:6b:0c:d1:d1:1c:9f:fd:c3:8c:81:1c:
         d4:42:c4:c2:91:8e:87:b9:0a:f6:c7:5a:3b:d0:2b:9a:de:a9:
         ea:25:61:be:06:70:2a:bf:a0:7c:1d:08:cb:7f:fa:a5:c3:8c:
         03:17:be:da:35:17:84:2b:b2:0b:52:9c:cd:00:cc:c1:7e:0d:
         ed:04:ea:72:1b:39:2e:7e:1d:89:9f:b8:73:43:85:18:d0:f5:
         3b:50:45:d4:06:21:6a:f9:12:49:dc:b7:83:9f:2d:4d:d4:18:
         67:c7:88:35:cd:54:4f:fd:79:71:23:65:36:85:9b:5b:47:29:
         fd:37:54:49:15:98:53:dc:8d:64:12:d2:97:0c:5b:ba:05:12:
         69:e6:aa:95:e1:06:a0:a2:dc:ed:a3:33:11:2a:38:0a:d3:35:
         18:23:8f:e8:ac:0a:4b:93:f4:09:89:c6:91:3e:2e:3b:6b:32:
         dd:6c:c5:38:9f:26:0d:24:a7:dc:50:58:64:51:9c:dc:40:9f:
         1b:c8:be:ca:d5:8f:02:14:1b:c4:10:b6:46:bd:57:b2:44:e9:
         fd:35:d2:0e:43:f4:94:4a:cc:75:b5:e3:ae:1d:f8:ac:5e:8b:
         88:06:47:13:6d:28:11:18:50:95:75:e4:d3:3d:22:3c:e4:02:
         a9:2f:69:61
-----BEGIN CERTIFICATE-----
MIIEBDCCAuygAwIBAgIBATANBgkqhkiG9w0BAQUFADCBhjELMAkGA1UEBhMCQVUx
EzARBgNVBAgMClNvbWUtU3RhdGUxITAfBgNVBAoMGEludGVybmV0IFdpZGdpdHMg
UHR5IEx0ZDEbMBkGA1UEAwwSc2Nhbi53dW5kZXJsaW4ubmV0MSIwIAYJKoZIhvcN
AQkBFhNzaW1vbkB3dW5kZXJsaW4ubmV0MB4XDTE0MTExODE5MTc1OFoXDTE1MTEx
ODE5MTc1OFowgYYxCzAJBgNVBAYTAkFVMRMwEQYDVQQIDApTb21lLVN0YXRlMSEw
HwYDVQQKDBhJbnRlcm5ldCBXaWRnaXRzIFB0eSBMdGQxGzAZBgNVBAMMEnNjYW4u
d3VuZGVybGluLm5ldDEiMCAGCSqGSIb3DQEJARYTc2ltb25Ad3VuZGVybGluLm5l
dDCCASIwDQYJKoZIhvcNAQEBBQADggEPADCCAQoCggEBANH51/9uiqRMDNZoWkrn
lvqVU1KAc8TY/863vHQibrbBS/ItpFg4BiK1Lxz0Ujlh7ksMTbf+0a5OWtQpKGJ2
Vw87Fbx8bpNubqQy3BuDoHi0kp72Mh4ZicvMrpQEerVC6EM9oWQaoRTUjuaijOTx
rn6u9Ymnin2Z9nqqNTRNeL5RfT2i5B8MO59dC5p+PCMO+aaZxB0E6jE8FlFV1Rjx
eB7xPdIL9FvPVnuM8daUsPlCapoizwUE1dKyBlXMXWnhLlrXEbBSjsIOQ379QxyF
/co0x3yUWs84tbIBwoPBnLA/0drOEHs+HsUUKfWI/BXh73VN2zQlMBKIMIqvqfb7
KG8CAwEAAaN7MHkwCQYDVR0TBAIwADAsBglghkgBhvhCAQ0EHxYdT3BlblNTTCBH
ZW5lcmF0ZWQgQ2VydGlmaWNhdGUwHQYDVR0OBBYEFBN1txBqhf930wE0kxbPkiC3
ykvaMB8GA1UdIwQYMBaAFC5IGvcYXC/e6Z5m721yDGhbI6WYMA0GCSqGSIb3DQEB
BQUAA4IBAQAiKH++9bYHawzR0Ryf/cOMgRzUQsTCkY6HuQr2x1o70Cua3qnqJWG+
BnAqv6B8HQjLf/qlw4wDF77aNReEK7ILUpzNAMzBfg3tBOpyGzkufh2Jn7hzQ4UY
0PU7UEXUBiFq+RJJ3LeDny1N1Bhnx4g1zVRP/XlxI2U2hZtbRyn9N1RJFZhT3I1k
EtKXDFu6BRJp5qqV4QagotztozMRKjgK0zUYI4/orApLk/QJicaRPi47azLdbMU4
nyYNJKfcUFhkUZzcQJ8byL7K1Y8CFBvEELZGvVeyROn9NdIOQ/SUSsx1teOuHfis
XouIBkcTbSgRGFCVdeTTPSI85AKpL2lh
-----END CERTIFICATE-----
